target datalayout = "e-m:e-p270:32:32-p271:32:32-p272:64:64-i64:64-i128:128-f80:128-n8:16:32:64-S128"
target triple = "x86_64-pc-linux-gnu"

%struct.func_args = type { i32, ptr, i32, ptr, ptr }

; Function Attrs: nounwind uwtable
define dso_local i32 @main(i32 noundef %0, ptr noundef %1) #0 {
  %3 = alloca i32, align 4
  %4 = alloca i32, align 4
  %5 = alloca ptr, align 8
  %6 = alloca %struct.func_args, align 8
  store i32 0, ptr %3, align 4
  store i32 %0, ptr %4, align 4, !tbaa !8
  store ptr %1, ptr %5, align 8, !tbaa !12
  call void @llvm.lifetime.start.p0(i64 40, ptr %6) #12
  %7 = load i32, ptr %4, align 4, !tbaa !8
  %8 = getelementptr inbounds nuw %struct.func_args, ptr %6, i32 0, i32 0
  store i32 %7, ptr %8, align 8, !tbaa !14
  %9 = load ptr, ptr %5, align 8, !tbaa !12
  %10 = getelementptr inbounds nuw %struct.func_args, ptr %6, i32 0, i32 1
  store ptr %9, ptr %10, align 8, !tbaa !18
  %11 = getelementptr inbounds nuw %struct.func_args, ptr %6, i32 0, i32 2
  store i32 0, ptr %11, align 8, !tbaa !19
  %12 = call i32 @bench_tls(ptr noundef %6)
  %13 = getelementptr inbounds nuw %struct.func_args, ptr %6, i32 0, i32 2
  %14 = load i32, ptr %13, align 8, !tbaa !19
  call void @llvm.lifetime.end.p0(i64 40, ptr %6) #12
  ret i32 %14
}