; Function Attrs: nounwind uwtable
define dso_local i32 @main(i32 noundef %0, ptr noundef %1) local_unnamed_addr #0 {
  %3 = alloca %struct.func_args, align 8
  call void @llvm.lifetime.start.p0(i64 40, ptr nonnull %3) #17
  store i32 %0, ptr %3, align 8, !tbaa !8
  %4 = getelementptr inbounds nuw i8, ptr %3, i64 8
  store ptr %1, ptr %4, align 8, !tbaa !14
  %5 = getelementptr inbounds nuw i8, ptr %3, i64 16
  store i32 0, ptr %5, align 8, !tbaa !15
  %6 = call i32 @bench_tls(ptr noundef nonnull %3)
  %7 = load i32, ptr %5, align 8, !tbaa !15
  call void @llvm.lifetime.end.p0(i64 40, ptr nonnull %3) #17
  ret i32 %7
}